; Function Attrs: nounwind uwtable
define dso_local void @zif_fclose(ptr noundef %0, ptr noundef writeonly captures(none) %1) local_unnamed_addr #1 {
  %3 = getelementptr inbounds nuw i8, ptr %0, i64 44
  %4 = load i32, ptr %3, align 4, !tbaa !21
  %cond = icmp eq i32 %4, 1
  br i1 %cond, label %6, label %5, !prof !54

5:                                                ; preds = %2
  tail call void @zend_wrong_parameters_count_error(i32 noundef 1, i32 noundef 1) #18
  br label %11

6:                                                ; preds = %2
  %7 = getelementptr inbounds nuw i8, ptr %0, i64 80
  %8 = getelementptr inbounds nuw i8, ptr %0, i64 88
  %9 = load i8, ptr %8, align 8, !tbaa !21
  %10 = icmp eq i8 %9, 9
  br i1 %10, label %.critedge, label %11, !prof !52

11:                                               ; preds = %5, %6
  %.039.ph = phi i32 [ 14, %6 ], [ 0, %5 ]
  %.038.ph = phi ptr [ %7, %6 ], [ null, %5 ]
  %.037.ph = phi i32 [ 1, %6 ], [ 0, %5 ]
  %.036.ph = phi i32 [ 9, %6 ], [ 1, %5 ]
  tail call void @zend_wrong_parameter_error(i32 noundef %.036.ph, i32 noundef %.037.ph, ptr noundef null, i32 noundef %.039.ph, ptr noundef %.038.ph) #18
  br label %34

.critedge:                                        ; preds = %6
  %12 = load ptr, ptr %7, align 8, !tbaa !21
  %13 = tail call i32 @php_file_le_stream() #18
  %14 = tail call i32 @php_file_le_pstream() #18
  %15 = tail call ptr @zend_fetch_resource2(ptr noundef %12, ptr noundef nonnull @.str.2, i32 noundef %13, i32 noundef %14) #18
  %16 = icmp eq ptr %15, null
  br i1 %16, label %34, label %17

17:                                               ; preds = %.critedge
  %18 = getelementptr inbounds nuw i8, ptr %15, i64 116
  %19 = load i32, ptr %18, align 4, !tbaa !94
  %20 = and i32 %19, 128
  %.not43 = icmp eq i32 %20, 0
  br i1 %.not43, label %27, label %21

21:                                               ; preds = %17
  %22 = getelementptr inbounds nuw i8, ptr %15, i64 120
  %23 = load ptr, ptr %22, align 8, !tbaa !95
  %24 = getelementptr inbounds nuw i8, ptr %23, i64 8
  %25 = load i64, ptr %24, align 8, !tbaa !96
  tail call void (ptr, i32, ptr, ...) @php_error_docref(ptr noundef null, i32 noundef 2, ptr noundef nonnull @.str.21, i64 noundef %25) #18
  %26 = getelementptr inbounds nuw i8, ptr %1, i64 8
  store i32 2, ptr %26, align 8, !tbaa !21
  br label %34

27:                                               ; preds = %17
  %28 = getelementptr inbounds nuw i8, ptr %15, i64 96
  %29 = load i16, ptr %28, align 8
  %30 = and i16 %29, 1
  %.not44 = icmp eq i16 %30, 0
  %31 = select i1 %.not44, i32 67, i32 83
  %32 = tail call i32 @_php_stream_free(ptr noundef nonnull %15, i32 noundef %31) #18
  %33 = getelementptr inbounds nuw i8, ptr %1, i64 8
  store i32 3, ptr %33, align 8, !tbaa !21
  br label %34

34:                                               ; preds = %11, %.critedge, %27, %21
  ret void
}